target datalayout = "e-m:e-p270:32:32-p271:32:32-p272:64:64-i64:64-i128:128-f80:128-n8:16:32:64-S128"
target triple = "x86_64-pc-linux-gnu"

%struct.call_foreach_t = type { ptr, ptr, i32, i8 }
%struct.pref_module = type { ptr, ptr, ptr, ptr, ptr, ptr, ptr, ptr, i32, i32, i8, i8, i32 }

@prefs_top_level_modules = internal global ptr null, align 8

; Function Attrs: null_pointer_is_valid sspstrong uwtable
define internal i32 @prefs_module_list_foreach(ptr noundef %0, ptr noundef %1, ptr noundef %2, i1 noundef zeroext %3) #1 {
  %5 = alloca ptr, align 8
  %6 = alloca ptr, align 8
  %7 = alloca ptr, align 8
  %8 = alloca i8, align 1
  %9 = alloca %struct.call_foreach_t, align 8
  store ptr %0, ptr %5, align 8
  store ptr %1, ptr %6, align 8
  store ptr %2, ptr %7, align 8
  %10 = zext i1 %3 to i8
  store i8 %10, ptr %8, align 1
  call void @llvm.lifetime.start.p0(i64 24, ptr %9) #17
  %11 = load ptr, ptr %5, align 8
  %12 = icmp eq ptr %11, null
  br i1 %12, label %13, label %15

13:                                               ; preds = %4
  %14 = load ptr, ptr @prefs_top_level_modules, align 8
  store ptr %14, ptr %5, align 8
  br label %15

15:                                               ; preds = %13, %4
  %16 = load ptr, ptr %6, align 8
  %17 = getelementptr inbounds nuw %struct.call_foreach_t, ptr %9, i32 0, i32 0
  store ptr %16, ptr %17, align 8
  %18 = load ptr, ptr %7, align 8
  %19 = getelementptr inbounds nuw %struct.call_foreach_t, ptr %9, i32 0, i32 1
  store ptr %18, ptr %19, align 8
  %20 = getelementptr inbounds nuw %struct.call_foreach_t, ptr %9, i32 0, i32 2
  store i32 0, ptr %20, align 8
  %21 = load i8, ptr %8, align 1, !range !6, !noundef !7
  %22 = trunc i8 %21 to i1
  %23 = getelementptr inbounds nuw %struct.call_foreach_t, ptr %9, i32 0, i32 3
  %24 = zext i1 %22 to i8
  store i8 %24, ptr %23, align 4
  %25 = load ptr, ptr %5, align 8
  %26 = call zeroext i1 @wmem_tree_foreach(ptr noundef %25, ptr noundef @call_foreach_cb, ptr noundef %9)
  %27 = getelementptr inbounds nuw %struct.call_foreach_t, ptr %9, i32 0, i32 2
  %28 = load i32, ptr %27, align 8
  call void @llvm.lifetime.end.p0(i64 24, ptr %9) #17
  ret i32 %28
}

; Function Attrs: null_pointer_is_valid sspstrong uwtable
define i32 @prefs_modules_foreach_submodules(ptr noundef %0, ptr noundef %1, ptr noundef %2) #1 {
  %4 = alloca ptr, align 8
  %5 = alloca ptr, align 8
  %6 = alloca ptr, align 8
  store ptr %0, ptr %4, align 8
  store ptr %1, ptr %5, align 8
  store ptr %2, ptr %6, align 8
  %7 = load ptr, ptr %4, align 8
  %8 = icmp ne ptr %7, null
  br i1 %8, label %9, label %13

9:                                                ; preds = %3
  %10 = load ptr, ptr %4, align 8
  %11 = getelementptr inbounds nuw %struct.pref_module, ptr %10, i32 0, i32 7
  %12 = load ptr, ptr %11, align 8
  br label %15

13:                                               ; preds = %3
  %14 = load ptr, ptr @prefs_top_level_modules, align 8
  br label %15

15:                                               ; preds = %13, %9
  %16 = phi ptr [ %12, %9 ], [ %14, %13 ]
  %17 = load ptr, ptr %5, align 8
  %18 = load ptr, ptr %6, align 8
  %19 = call i32 @prefs_module_list_foreach(ptr noundef %16, ptr noundef %17, ptr noundef %18, i1 noundef zeroext true)
  ret i32 %19
}