; Function Attrs: null_pointer_is_valid sspstrong uwtable
define i32 @prefs_modules_foreach_submodules(ptr noundef readonly captures(address_is_null) %0, ptr noundef %1, ptr noundef %2) local_unnamed_addr #1 {
  %4 = alloca %struct.call_foreach_t, align 8
  %.not = icmp eq ptr %0, null
  %5 = getelementptr inbounds nuw i8, ptr %0, i64 56
  %.in = select i1 %.not, ptr @prefs_top_level_modules, ptr %5
  %6 = load ptr, ptr %.in, align 8
  call void @llvm.lifetime.start.p0(i64 24, ptr nonnull %4) #25
  %7 = icmp eq ptr %6, null
  %8 = load ptr, ptr @prefs_top_level_modules, align 8
  %spec.select.i = select i1 %7, ptr %8, ptr %6
  store ptr %1, ptr %4, align 8
  %9 = getelementptr inbounds nuw i8, ptr %4, i64 8
  store ptr %2, ptr %9, align 8
  %10 = getelementptr inbounds nuw i8, ptr %4, i64 16
  store i32 0, ptr %10, align 8
  %11 = getelementptr inbounds nuw i8, ptr %4, i64 20
  store i8 1, ptr %11, align 4
  %12 = call zeroext i1 @wmem_tree_foreach(ptr noundef %spec.select.i, ptr noundef nonnull @call_foreach_cb, ptr noundef nonnull %4)
  %13 = load i32, ptr %10, align 8
  call void @llvm.lifetime.end.p0(i64 24, ptr nonnull %4) #25
  ret i32 %13
}